; ModuleID = '52/1111.c'
source_filename = "52/1111.c"
target datalayout = "e-m:e-p270:32:32-p271:32:32-p272:64:64-i64:64-f80:128-n8:16:32:64-S128"
target triple = "x86_64-pc-linux-gnu"

@.str = private unnamed_addr constant [3 x i8] c"%d\00", align 1
@.str.1 = private unnamed_addr constant [2 x i8] c" \00", align 1

; Function Attrs: noinline nounwind uwtable
define dso_local void @move(i32* %0, i32 %1, i32 %2) #0 {
  %4 = alloca i32*, align 8
  %5 = alloca i32, align 4
  %6 = alloca i32, align 4
  %7 = alloca i32, align 4
  %8 = alloca i32*, align 8
  %9 = alloca void (i32*, i32, i32)*, align 8
  store i32* %0, i32** %4, align 8
  store i32 %1, i32* %5, align 4
  store i32 %2, i32* %6, align 4
  store void (i32*, i32, i32)* @move, void (i32*, i32, i32)** %9, align 8
  %10 = load i32, i32* %6, align 4
  %11 = icmp sgt i32 %10, 0
  br i1 %11, label %12, label %44

12:                                               ; preds = %3
  %13 = load i32*, i32** %4, align 8
  %14 = load i32, i32* %5, align 4
  %15 = sext i32 %14 to i64
  %16 = getelementptr inbounds i32, i32* %13, i64 %15
  %17 = getelementptr inbounds i32, i32* %16, i64 -1
  %18 = load i32, i32* %17, align 4
  store i32 %18, i32* %7, align 4
  %19 = load i32*, i32** %4, align 8
  %20 = load i32, i32* %5, align 4
  %21 = sext i32 %20 to i64
  %22 = getelementptr inbounds i32, i32* %19, i64 %21
  %23 = getelementptr inbounds i32, i32* %22, i64 -2
  store i32* %23, i32** %8, align 8
  br label %24

24:                                               ; preds = %33, %12
  %25 = load i32*, i32** %8, align 8
  %26 = load i32*, i32** %4, align 8
  %27 = icmp uge i32* %25, %26
  br i1 %27, label %28, label %36

28:                                               ; preds = %24
  %29 = load i32*, i32** %8, align 8
  %30 = load i32, i32* %29, align 4
  %31 = load i32*, i32** %8, align 8
  %32 = getelementptr inbounds i32, i32* %31, i64 1
  store i32 %30, i32* %32, align 4
  br label %33

33:                                               ; preds = %28
  %34 = load i32*, i32** %8, align 8
  %35 = getelementptr inbounds i32, i32* %34, i32 -1
  store i32* %35, i32** %8, align 8
  br label %24

36:                                               ; preds = %24
  %37 = load i32, i32* %7, align 4
  %38 = load i32*, i32** %4, align 8
  store i32 %37, i32* %38, align 4
  %39 = load void (i32*, i32, i32)*, void (i32*, i32, i32)** %9, align 8
  %40 = load i32*, i32** %4, align 8
  %41 = load i32, i32* %5, align 4
  %42 = load i32, i32* %6, align 4
  %43 = sub nsw i32 %42, 1
  call void %39(i32* %40, i32 %41, i32 %43)
  br label %44

44:                                               ; preds = %36, %3
  ret void
}

; Function Attrs: noinline nounwind uwtable
define dso_local void @main() #0 {
  %1 = alloca i32, align 4
  %2 = alloca i32, align 4
  %3 = alloca i32, align 4
  %4 = alloca i32, align 4
  %5 = alloca [100 x i32], align 16
  %6 = alloca i32*, align 8
  %7 = alloca void (i32*, i32, i32)*, align 8
  %8 = getelementptr inbounds [100 x i32], [100 x i32]* %5, i64 0, i64 0
  store i32* %8, i32** %6, align 8
  %9 = call i32 (i8*, ...) @__isoc99_scanf(i8* getelementptr inbounds ([3 x i8], [3 x i8]* @.str, i64 0, i64 0), i32* %3)
  %10 = call i32 (i8*, ...) @__isoc99_scanf(i8* getelementptr inbounds ([3 x i8], [3 x i8]* @.str, i64 0, i64 0), i32* %4)
  store i32 0, i32* %2, align 4
  br label %11

11:                                               ; preds = %20, %0
  %12 = load i32, i32* %2, align 4
  %13 = load i32, i32* %3, align 4
  %14 = sub nsw i32 %13, 1
  %15 = icmp sle i32 %12, %14
  br i1 %15, label %16, label %23

16:                                               ; preds = %11
  %17 = load i32*, i32** %6, align 8
  %18 = getelementptr inbounds i32, i32* %17, i32 1
  store i32* %18, i32** %6, align 8
  %19 = call i32 (i8*, ...) @__isoc99_scanf(i8* getelementptr inbounds ([3 x i8], [3 x i8]* @.str, i64 0, i64 0), i32* %17)
  br label %20

20:                                               ; preds = %16
  %21 = load i32, i32* %2, align 4
  %22 = add nsw i32 %21, 1
  store i32 %22, i32* %2, align 4
  br label %11

23:                                               ; preds = %11
  %24 = getelementptr inbounds [100 x i32], [100 x i32]* %5, i64 0, i64 0
  store i32* %24, i32** %6, align 8
  store void (i32*, i32, i32)* @move, void (i32*, i32, i32)** %7, align 8
  %25 = load void (i32*, i32, i32)*, void (i32*, i32, i32)** %7, align 8
  %26 = load i32*, i32** %6, align 8
  %27 = load i32, i32* %3, align 4
  %28 = load i32, i32* %4, align 4
  call void %25(i32* %26, i32 %27, i32 %28)
  store i32 0, i32* %1, align 4
  store i32 0, i32* %2, align 4
  br label %29

29:                                               ; preds = %45, %23
  %30 = load i32, i32* %2, align 4
  %31 = load i32, i32* %3, align 4
  %32 = sub nsw i32 %31, 1
  %33 = icmp sle i32 %30, %32
  br i1 %33, label %34, label %48

34:                                               ; preds = %29
  %35 = load i32, i32* %1, align 4
  %36 = icmp ne i32 %35, 0
  br i1 %36, label %37, label %39

37:                                               ; preds = %34
  %38 = call i32 (i8*, ...) @printf(i8* getelementptr inbounds ([2 x i8], [2 x i8]* @.str.1, i64 0, i64 0))
  br label %40

39:                                               ; preds = %34
  store i32 1, i32* %1, align 4
  br label %40

40:                                               ; preds = %39, %37
  %41 = load i32*, i32** %6, align 8
  %42 = getelementptr inbounds i32, i32* %41, i32 1
  store i32* %42, i32** %6, align 8
  %43 = load i32, i32* %41, align 4
  %44 = call i32 (i8*, ...) @printf(i8* getelementptr inbounds ([3 x i8], [3 x i8]* @.str, i64 0, i64 0), i32 %43)
  br label %45

45:                                               ; preds = %40
  %46 = load i32, i32* %2, align 4
  %47 = add nsw i32 %46, 1
  store i32 %47, i32* %2, align 4
  br label %29

48:                                               ; preds = %29
  ret void
}

declare dso_local i32 @__isoc99_scanf(i8*, ...) #1

declare dso_local i32 @printf(i8*, ...) #1


!llvm.module.flags = !{!0}
!llvm.ident = !{!1}

!0 = !{i32 1, !"wchar_size", i32 4}
!1 = !{!"clang version 10.0.0-4ubuntu1 "}
